target datalayout = "e-m:e-p270:32:32-p271:32:32-p272:64:64-i64:64-i128:128-f80:128-n8:16:32:64-S128"
target triple = "x86_64-unknown-linux-gnu"

%"class.llvh::StringRef" = type { ptr, i64 }
%"class.llvh::sys::path::reverse_iterator" = type <{ %"class.llvh::StringRef", %"class.llvh::StringRef", i64, i32, [4 x i8] }>

; Function Attrs: mustprogress nounwind uwtable
define linkonce_odr hidden void @_ZN4llvh9StringRefC2Ev(ptr noundef nonnull align 8 dereferenceable(16) %this) unnamed_addr #0 comdat align 2 {
entry:
  %this.addr = alloca ptr, align 8
  store ptr %this, ptr %this.addr, align 8
  %this1 = load ptr, ptr %this.addr, align 8
  %Data = getelementptr inbounds %"class.llvh::StringRef", ptr %this1, i32 0, i32 0
  store ptr null, ptr %Data, align 8
  %Length = getelementptr inbounds %"class.llvh::StringRef", ptr %this1, i32 0, i32 1
  store i64 0, ptr %Length, align 8
  ret void
}

; Function Attrs: mustprogress nounwind uwtable
define linkonce_odr hidden void @_ZN4llvh3sys4path16reverse_iteratorC2Ev(ptr noundef nonnull align 8 dereferenceable(44) %this) unnamed_addr #0 comdat align 2 {
entry:
  %this.addr = alloca ptr, align 8
  store ptr %this, ptr %this.addr, align 8
  %this1 = load ptr, ptr %this.addr, align 8
  %Path = getelementptr inbounds %"class.llvh::sys::path::reverse_iterator", ptr %this1, i32 0, i32 0
  call void @_ZN4llvh9StringRefC2Ev(ptr noundef nonnull align 8 dereferenceable(16) %Path) #9
  %Component = getelementptr inbounds %"class.llvh::sys::path::reverse_iterator", ptr %this1, i32 0, i32 1
  call void @_ZN4llvh9StringRefC2Ev(ptr noundef nonnull align 8 dereferenceable(16) %Component) #9
  ret void
}

; Function Attrs: mustprogress nounwind uwtable
define hidden void @_ZN4llvh3sys4path6rbeginENS_9StringRefENS1_5StyleE(ptr noalias sret(%"class.llvh::sys::path::reverse_iterator") align 8 %agg.result, ptr %Path.coerce0, i64 %Path.coerce1, i32 noundef %style) #0 {
entry:
  %this.addr.i = alloca ptr, align 8
  %Path = alloca %"class.llvh::StringRef", align 8
  %style.addr = alloca i32, align 4
  %I = alloca %"class.llvh::sys::path::reverse_iterator", align 8
  %0 = getelementptr inbounds { ptr, i64 }, ptr %Path, i32 0, i32 0
  store ptr %Path.coerce0, ptr %0, align 8
  %1 = getelementptr inbounds { ptr, i64 }, ptr %Path, i32 0, i32 1
  store i64 %Path.coerce1, ptr %1, align 8
  store i32 %style, ptr %style.addr, align 4
  call void @_ZN4llvh3sys4path16reverse_iteratorC2Ev(ptr noundef nonnull align 8 dereferenceable(44) %I) #9
  %Path1 = getelementptr inbounds %"class.llvh::sys::path::reverse_iterator", ptr %I, i32 0, i32 0
  call void @llvm.memcpy.p0.p0.i64(ptr align 8 %Path1, ptr align 8 %Path, i64 16, i1 false)
  store ptr %Path, ptr %this.addr.i, align 8
  %this1.i = load ptr, ptr %this.addr.i, align 8
  %Length.i = getelementptr inbounds %"class.llvh::StringRef", ptr %this1.i, i32 0, i32 1
  %2 = load i64, ptr %Length.i, align 8
  %Position = getelementptr inbounds %"class.llvh::sys::path::reverse_iterator", ptr %I, i32 0, i32 2
  store i64 %2, ptr %Position, align 8
  %3 = load i32, ptr %style.addr, align 4
  %S = getelementptr inbounds %"class.llvh::sys::path::reverse_iterator", ptr %I, i32 0, i32 3
  store i32 %3, ptr %S, align 8
  %call2 = call noundef nonnull align 8 dereferenceable(44) ptr @_ZN4llvh3sys4path16reverse_iteratorppEv(ptr noundef nonnull align 8 dereferenceable(44) %I)
  call void @llvm.memcpy.p0.p0.i64(ptr align 8 %agg.result, ptr align 8 %call2, i64 48, i1 false)
  ret void
}