; Function Attrs: mustprogress nounwind uwtable
define hidden void @_ZN4llvh3sys4path6rbeginENS_9StringRefENS1_5StyleE(ptr noalias nocapture writeonly sret(%"class.llvh::sys::path::reverse_iterator") align 8 %agg.result, ptr %Path.coerce0, i64 %Path.coerce1, i32 noundef %style) local_unnamed_addr #0 {
entry:
  %I = alloca %"class.llvh::sys::path::reverse_iterator", align 8
  %0 = getelementptr inbounds i8, ptr %I, i64 16
  call void @llvm.memset.p0.i64(ptr noundef nonnull align 8 dereferenceable(32) %0, i8 0, i64 16, i1 false)
  store ptr %Path.coerce0, ptr %I, align 8
  %Path.sroa.2.0.Path1.sroa_idx = getelementptr inbounds i8, ptr %I, i64 8
  store i64 %Path.coerce1, ptr %Path.sroa.2.0.Path1.sroa_idx, align 8
  %Position = getelementptr inbounds i8, ptr %I, i64 32
  store i64 %Path.coerce1, ptr %Position, align 8
  %S = getelementptr inbounds i8, ptr %I, i64 40
  store i32 %style, ptr %S, align 8
  %call2 = call noundef nonnull align 8 dereferenceable(44) ptr @_ZN4llvh3sys4path16reverse_iteratorppEv(ptr noundef nonnull align 8 dereferenceable(44) %I)
  call void @llvm.memcpy.p0.p0.i64(ptr noundef nonnull align 8 dereferenceable(48) %agg.result, ptr noundef nonnull align 8 dereferenceable(48) %I, i64 48, i1 false)
  ret void
}